; Function Attrs: nounwind uwtable
define noalias nonnull ptr @l___private_Lean_Widget_InteractiveDiagnostic_0__Lean_Widget_msgToInteractiveAux_mkContextInfo(ptr noundef readonly captures(none) %0, ptr noundef readonly captures(none) %1) local_unnamed_addr #0 {
  %3 = getelementptr inbounds nuw i8, ptr %1, i64 8
  %4 = load ptr, ptr %3, align 8, !tbaa !9
  %5 = getelementptr inbounds nuw i8, ptr %1, i64 16
  %6 = load ptr, ptr %5, align 8, !tbaa !9
  %7 = getelementptr inbounds nuw i8, ptr %1, i64 32
  %8 = load ptr, ptr %7, align 8, !tbaa !9
  %9 = getelementptr inbounds nuw i8, ptr %0, i64 8
  %10 = load ptr, ptr %9, align 8, !tbaa !9
  %11 = getelementptr inbounds nuw i8, ptr %0, i64 16
  %12 = load ptr, ptr %11, align 8, !tbaa !9
  %13 = load ptr, ptr @l___private_Lean_Widget_InteractiveDiagnostic_0__Lean_Widget_msgToInteractiveAux_mkContextInfo___closed__1, align 8, !tbaa !9
  %14 = load ptr, ptr @l___private_Lean_Widget_InteractiveDiagnostic_0__Lean_Widget_msgToInteractiveAux_mkContextInfo___closed__4, align 8, !tbaa !9
  %15 = ptrtoint ptr %12 to i64
  %16 = and i64 %15, 1
  %.not = icmp eq i64 %16, 0
  br i1 %.not, label %17, label %lean_inc.exit32

17:                                               ; preds = %2
  %.val.i = load i32, ptr %12, align 4, !tbaa !4
  %18 = icmp sgt i32 %.val.i, 0
  br i1 %18, label %19, label %21, !prof !15

19:                                               ; preds = %17
  %20 = add nuw i32 %.val.i, 1
  store i32 %20, ptr %12, align 4, !tbaa !4
  br label %lean_inc.exit32

21:                                               ; preds = %17
  %.not.i = icmp eq i32 %.val.i, 0
  br i1 %.not.i, label %lean_inc.exit32, label %22

22:                                               ; preds = %21
  tail call void @lean_inc_ref_cold(ptr noundef nonnull %12) #7
  br label %lean_inc.exit32

lean_inc.exit32:                                  ; preds = %22, %21, %19, %2
  %23 = ptrtoint ptr %10 to i64
  %24 = and i64 %23, 1
  %.not46 = icmp eq i64 %24, 0
  br i1 %.not46, label %25, label %lean_inc.exit31

25:                                               ; preds = %lean_inc.exit32
  %.val.i33 = load i32, ptr %10, align 4, !tbaa !4
  %26 = icmp sgt i32 %.val.i33, 0
  br i1 %26, label %27, label %29, !prof !15

27:                                               ; preds = %25
  %28 = add nuw i32 %.val.i33, 1
  store i32 %28, ptr %10, align 4, !tbaa !4
  br label %lean_inc.exit31

29:                                               ; preds = %25
  %.not.i34 = icmp eq i32 %.val.i33, 0
  br i1 %.not.i34, label %lean_inc.exit31, label %30

30:                                               ; preds = %29
  tail call void @lean_inc_ref_cold(ptr noundef nonnull %10) #7
  br label %lean_inc.exit31

lean_inc.exit31:                                  ; preds = %30, %29, %27, %lean_inc.exit32
  %31 = ptrtoint ptr %8 to i64
  %32 = and i64 %31, 1
  %.not47 = icmp eq i64 %32, 0
  br i1 %.not47, label %33, label %lean_inc.exit30

33:                                               ; preds = %lean_inc.exit31
  %.val.i36 = load i32, ptr %8, align 4, !tbaa !4
  %34 = icmp sgt i32 %.val.i36, 0
  br i1 %34, label %35, label %37, !prof !15

35:                                               ; preds = %33
  %36 = add nuw i32 %.val.i36, 1
  store i32 %36, ptr %8, align 4, !tbaa !4
  br label %lean_inc.exit30

37:                                               ; preds = %33
  %.not.i37 = icmp eq i32 %.val.i36, 0
  br i1 %.not.i37, label %lean_inc.exit30, label %38

38:                                               ; preds = %37
  tail call void @lean_inc_ref_cold(ptr noundef nonnull %8) #7
  br label %lean_inc.exit30

lean_inc.exit30:                                  ; preds = %38, %37, %35, %lean_inc.exit31
  %39 = ptrtoint ptr %6 to i64
  %40 = and i64 %39, 1
  %.not48 = icmp eq i64 %40, 0
  br i1 %.not48, label %41, label %lean_inc.exit29

41:                                               ; preds = %lean_inc.exit30
  %.val.i39 = load i32, ptr %6, align 4, !tbaa !4
  %42 = icmp sgt i32 %.val.i39, 0
  br i1 %42, label %43, label %45, !prof !15

43:                                               ; preds = %41
  %44 = add nuw i32 %.val.i39, 1
  store i32 %44, ptr %6, align 4, !tbaa !4
  br label %lean_inc.exit29

45:                                               ; preds = %41
  %.not.i40 = icmp eq i32 %.val.i39, 0
  br i1 %.not.i40, label %lean_inc.exit29, label %46

46:                                               ; preds = %45
  tail call void @lean_inc_ref_cold(ptr noundef nonnull %6) #7
  br label %lean_inc.exit29

lean_inc.exit29:                                  ; preds = %46, %45, %43, %lean_inc.exit30
  %47 = ptrtoint ptr %4 to i64
  %48 = and i64 %47, 1
  %.not49 = icmp eq i64 %48, 0
  br i1 %.not49, label %49, label %lean_inc.exit

49:                                               ; preds = %lean_inc.exit29
  %.val.i42 = load i32, ptr %4, align 4, !tbaa !4
  %50 = icmp sgt i32 %.val.i42, 0
  br i1 %50, label %51, label %53, !prof !15

51:                                               ; preds = %49
  %52 = add nuw i32 %.val.i42, 1
  store i32 %52, ptr %4, align 4, !tbaa !4
  br label %lean_inc.exit

53:                                               ; preds = %49
  %.not.i43 = icmp eq i32 %.val.i42, 0
  br i1 %.not.i43, label %lean_inc.exit, label %54

54:                                               ; preds = %53
  tail call void @lean_inc_ref_cold(ptr noundef nonnull %4) #7
  br label %lean_inc.exit

lean_inc.exit:                                    ; preds = %54, %53, %51, %lean_inc.exit29
  tail call void @lean_inc_heartbeat() #7
  %55 = tail call noalias ptr @mi_malloc_small(i64 noundef 64) #7
  %56 = icmp eq ptr %55, null
  br i1 %56, label %57, label %lean_alloc_ctor.exit

57:                                               ; preds = %lean_inc.exit
  tail call void @lean_internal_panic_out_of_memory() #8
  unreachable

lean_alloc_ctor.exit:                             ; preds = %lean_inc.exit
  %58 = getelementptr inbounds nuw i8, ptr %55, i64 4
  store i32 1, ptr %55, align 4, !tbaa !4
  store i32 458816, ptr %58, align 4
  %59 = getelementptr inbounds nuw i8, ptr %55, i64 8
  store ptr %4, ptr %59, align 8, !tbaa !9
  %60 = getelementptr inbounds nuw i8, ptr %55, i64 16
  store ptr %13, ptr %60, align 8, !tbaa !9
  %61 = getelementptr inbounds nuw i8, ptr %55, i64 24
  store ptr %6, ptr %61, align 8, !tbaa !9
  %62 = getelementptr inbounds nuw i8, ptr %55, i64 32
  store ptr %8, ptr %62, align 8, !tbaa !9
  %63 = getelementptr inbounds nuw i8, ptr %55, i64 40
  store ptr %10, ptr %63, align 8, !tbaa !9
  %64 = getelementptr inbounds nuw i8, ptr %55, i64 48
  store ptr %12, ptr %64, align 8, !tbaa !9
  %65 = getelementptr inbounds nuw i8, ptr %55, i64 56
  store ptr %14, ptr %65, align 8, !tbaa !9
  tail call void @lean_inc_heartbeat() #7
  %66 = tail call noalias ptr @mi_malloc_small(i64 noundef 24) #7
  %67 = icmp eq ptr %66, null
  br i1 %67, label %68, label %lean_alloc_ctor.exit45

68:                                               ; preds = %lean_alloc_ctor.exit
  tail call void @lean_internal_panic_out_of_memory() #8
  unreachable

lean_alloc_ctor.exit45:                           ; preds = %lean_alloc_ctor.exit
  %69 = getelementptr inbounds nuw i8, ptr %66, i64 4
  store i32 1, ptr %66, align 4, !tbaa !4
  store i32 131096, ptr %69, align 4
  %70 = getelementptr inbounds nuw i8, ptr %66, i64 8
  store ptr %55, ptr %70, align 8, !tbaa !9
  %71 = getelementptr inbounds nuw i8, ptr %66, i64 16
  store ptr inttoptr (i64 1 to ptr), ptr %71, align 8, !tbaa !9
  ret ptr %66
}